target datalayout = "e-m:e-p270:32:32-p271:32:32-p272:64:64-i64:64-i128:128-f80:128-n8:16:32:64-S128"
target triple = "x86_64-pc-linux-gnu"

%struct.H5FS_t = type { %struct.H5C_cache_entry_t, i64, i64, i64, i64, i32, i16, i32, i32, i32, i64, i64, i64, i64, i32, i64, i64, ptr, i8, i32, i8, i8, i32, i64, i64, i64, ptr }
%struct.H5C_cache_entry_t = type { ptr, i64, i64, ptr, i8, ptr, i8, i8, i8, i8, i32, i8, i8, i8, i8, i8, i32, ptr, i32, i32, i32, i32, i32, i8, i8, ptr, ptr, ptr, ptr, ptr, ptr, i8, i32, i8, i64, ptr, i64, i64, i32, i8, i32, i32, i8, ptr, ptr, ptr }
%struct.H5FS_sinfo_t = type { %struct.H5C_cache_entry_t, ptr, i8, i32, i64, i64, i64, i64, i32, i32, i32, ptr, ptr }
%struct.H5FS_section_class_t = type { i32, i64, i32, ptr, ptr, ptr, ptr, ptr, ptr, ptr, ptr, ptr, ptr, ptr, ptr, ptr, ptr }
%struct.H5FS_iter_ud_t = type { ptr, ptr, i32 }
%struct.H5FS_section_info_t = type { i64, i64, i32, i32 }

@.str.2 = private unnamed_addr constant [103 x i8] c"generated/home/dtcxzyw/WorkSpace/Projects/compilers/llvm-opt-benchmark/bench/hdf5/hdf5/src/H5FScache.c\00", align 1
@H5E_FSPACE_g = external global i64, align 8
@__func__.H5FS__sinfo_serialize_sect_cb = private unnamed_addr constant [30 x i8] c"H5FS__sinfo_serialize_sect_cb\00", align 1
@H5E_CANTSERIALIZE_g = external global i64, align 8
@.str.30 = private unnamed_addr constant [26 x i8] c"can't synchronize section\00", align 1

; Function Attrs: nounwind uwtable
define internal i32 @H5FS__sinfo_serialize_sect_cb(ptr noundef %0, ptr noundef %1, ptr noundef %2) #0 {
  %4 = alloca ptr, align 8
  %5 = alloca ptr, align 8
  %6 = alloca ptr, align 8
  %7 = alloca ptr, align 8
  %8 = alloca ptr, align 8
  %9 = alloca ptr, align 8
  %10 = alloca i32, align 4
  %11 = alloca i8, align 1
  %12 = alloca i64, align 8
  %13 = alloca i64, align 8
  %14 = alloca ptr, align 8
  store ptr %0, ptr %4, align 8
  store ptr %1, ptr %5, align 8
  store ptr %2, ptr %6, align 8
  %15 = load ptr, ptr %4, align 8
  store ptr %15, ptr %8, align 8
  %16 = load ptr, ptr %6, align 8
  store ptr %16, ptr %9, align 8
  store i32 0, ptr %10, align 4
  store i8 0, ptr %11, align 1
  %17 = load ptr, ptr %9, align 8
  %18 = getelementptr inbounds %struct.H5FS_iter_ud_t, ptr %17, i32 0, i32 0
  %19 = load ptr, ptr %18, align 8
  %20 = getelementptr inbounds %struct.H5FS_sinfo_t, ptr %19, i32 0, i32 11
  %21 = load ptr, ptr %20, align 8
  %22 = getelementptr inbounds %struct.H5FS_t, ptr %21, i32 0, i32 26
  %23 = load ptr, ptr %22, align 8
  %24 = load ptr, ptr %8, align 8
  %25 = getelementptr inbounds %struct.H5FS_section_info_t, ptr %24, i32 0, i32 2
  %26 = load i32, ptr %25, align 8
  %27 = zext i32 %26 to i64
  %28 = getelementptr inbounds %struct.H5FS_section_class_t, ptr %23, i64 %27
  store ptr %28, ptr %7, align 8
  %29 = load ptr, ptr %7, align 8
  %30 = getelementptr inbounds %struct.H5FS_section_class_t, ptr %29, i32 0, i32 2
  %31 = load i32, ptr %30, align 8
  %32 = and i32 %31, 1
  %33 = icmp ne i32 %32, 0
  br i1 %33, label %130, label %34

34:                                               ; preds = %3
  br label %35

35:                                               ; preds = %34
  %36 = load ptr, ptr %8, align 8
  %37 = getelementptr inbounds %struct.H5FS_section_info_t, ptr %36, i32 0, i32 0
  %38 = load i64, ptr %37, align 8
  store i64 %38, ptr %12, align 8
  %39 = load ptr, ptr %9, align 8
  %40 = getelementptr inbounds %struct.H5FS_iter_ud_t, ptr %39, i32 0, i32 1
  %41 = load ptr, ptr %40, align 8
  %42 = load ptr, ptr %41, align 8
  store ptr %42, ptr %14, align 8
  store i64 0, ptr %13, align 8
  br label %43

43:                                               ; preds = %58, %35
  %44 = load i64, ptr %13, align 8
  %45 = load ptr, ptr %9, align 8
  %46 = getelementptr inbounds %struct.H5FS_iter_ud_t, ptr %45, i32 0, i32 0
  %47 = load ptr, ptr %46, align 8
  %48 = getelementptr inbounds %struct.H5FS_sinfo_t, ptr %47, i32 0, i32 9
  %49 = load i32, ptr %48, align 4
  %50 = zext i32 %49 to i64
  %51 = icmp ult i64 %44, %50
  br i1 %51, label %52, label %63

52:                                               ; preds = %43
  %53 = load i64, ptr %12, align 8
  %54 = and i64 %53, 255
  %55 = trunc i64 %54 to i8
  %56 = load ptr, ptr %14, align 8
  %57 = getelementptr inbounds i8, ptr %56, i32 1
  store ptr %57, ptr %14, align 8
  store i8 %55, ptr %56, align 1
  br label %58

58:                                               ; preds = %52
  %59 = load i64, ptr %13, align 8
  %60 = add i64 %59, 1
  store i64 %60, ptr %13, align 8
  %61 = load i64, ptr %12, align 8
  %62 = lshr i64 %61, 8
  store i64 %62, ptr %12, align 8
  br label %43

63:                                               ; preds = %43
  %64 = load ptr, ptr %9, align 8
  %65 = getelementptr inbounds %struct.H5FS_iter_ud_t, ptr %64, i32 0, i32 1
  %66 = load ptr, ptr %65, align 8
  %67 = load ptr, ptr %66, align 8
  %68 = load ptr, ptr %9, align 8
  %69 = getelementptr inbounds %struct.H5FS_iter_ud_t, ptr %68, i32 0, i32 0
  %70 = load ptr, ptr %69, align 8
  %71 = getelementptr inbounds %struct.H5FS_sinfo_t, ptr %70, i32 0, i32 9
  %72 = load i32, ptr %71, align 4
  %73 = zext i32 %72 to i64
  %74 = getelementptr inbounds i8, ptr %67, i64 %73
  %75 = load ptr, ptr %9, align 8
  %76 = getelementptr inbounds %struct.H5FS_iter_ud_t, ptr %75, i32 0, i32 1
  %77 = load ptr, ptr %76, align 8
  store ptr %74, ptr %77, align 8
  br label %78

78:                                               ; preds = %63
  %79 = load ptr, ptr %8, align 8
  %80 = getelementptr inbounds %struct.H5FS_section_info_t, ptr %79, i32 0, i32 2
  %81 = load i32, ptr %80, align 8
  %82 = trunc i32 %81 to i8
  %83 = load ptr, ptr %9, align 8
  %84 = getelementptr inbounds %struct.H5FS_iter_ud_t, ptr %83, i32 0, i32 1
  %85 = load ptr, ptr %84, align 8
  %86 = load ptr, ptr %85, align 8
  %87 = getelementptr inbounds i8, ptr %86, i32 1
  store ptr %87, ptr %85, align 8
  store i8 %82, ptr %86, align 1
  %88 = load ptr, ptr %7, align 8
  %89 = getelementptr inbounds %struct.H5FS_section_class_t, ptr %88, i32 0, i32 7
  %90 = load ptr, ptr %89, align 8
  %91 = icmp ne ptr %90, null
  br i1 %91, label %92, label %128

92:                                               ; preds = %78
  %93 = load ptr, ptr %7, align 8
  %94 = getelementptr inbounds %struct.H5FS_section_class_t, ptr %93, i32 0, i32 7
  %95 = load ptr, ptr %94, align 8
  %96 = load ptr, ptr %7, align 8
  %97 = load ptr, ptr %8, align 8
  %98 = load ptr, ptr %9, align 8
  %99 = getelementptr inbounds %struct.H5FS_iter_ud_t, ptr %98, i32 0, i32 1
  %100 = load ptr, ptr %99, align 8
  %101 = load ptr, ptr %100, align 8
  %102 = call i32 %95(ptr noundef %96, ptr noundef %97, ptr noundef %101)
  %103 = icmp slt i32 %102, 0
  br i1 %103, label %104, label %119

104:                                              ; preds = %92
  br label %105

105:                                              ; preds = %104
  br label %106

106:                                              ; preds = %105
  br label %107

107:                                              ; preds = %106
  %108 = load i64, ptr @H5E_FSPACE_g, align 8
  %109 = load i64, ptr @H5E_CANTSERIALIZE_g, align 8
  %110 = call i32 (ptr, ptr, i32, i64, i64, ptr, ...) @H5E_printf_stack(ptr noundef @.str.2, ptr noundef @__func__.H5FS__sinfo_serialize_sect_cb, i32 noundef 1398, i64 noundef %108, i64 noundef %109, ptr noundef @.str.30)
  br label %111

111:                                              ; preds = %107
  store i8 1, ptr %11, align 1
  %112 = load i8, ptr %11, align 1
  %113 = trunc i8 %112 to i1
  %114 = zext i1 %113 to i8
  store i8 %114, ptr %11, align 1
  br label %115

115:                                              ; preds = %111
  br label %116

116:                                              ; preds = %115
  store i32 -1, ptr %10, align 4
  br label %131

117:                                              ; No predecessors!
  br label %118

118:                                              ; preds = %117
  br label %119

119:                                              ; preds = %118, %92
  %120 = load ptr, ptr %7, align 8
  %121 = getelementptr inbounds %struct.H5FS_section_class_t, ptr %120, i32 0, i32 1
  %122 = load i64, ptr %121, align 8
  %123 = load ptr, ptr %9, align 8
  %124 = getelementptr inbounds %struct.H5FS_iter_ud_t, ptr %123, i32 0, i32 1
  %125 = load ptr, ptr %124, align 8
  %126 = load ptr, ptr %125, align 8
  %127 = getelementptr inbounds i8, ptr %126, i64 %122
  store ptr %127, ptr %125, align 8
  br label %129

128:                                              ; preds = %78
  br label %129

129:                                              ; preds = %128, %119
  br label %130

130:                                              ; preds = %129, %3
  br label %131

131:                                              ; preds = %130, %116
  %132 = load i32, ptr %10, align 4
  ret i32 %132
}