; Function Attrs: nounwind uwtable
define internal range(i32 -1, 1) i32 @H5FS__sinfo_serialize_sect_cb(ptr noundef %0, ptr nocapture readnone %1, ptr nocapture noundef readonly %2) #0 {
  %4 = load ptr, ptr %2, align 8
  %5 = getelementptr inbounds i8, ptr %4, i64 312
  %6 = load ptr, ptr %5, align 8
  %7 = getelementptr inbounds i8, ptr %6, i64 408
  %8 = load ptr, ptr %7, align 8
  %9 = getelementptr inbounds i8, ptr %0, i64 16
  %10 = load i32, ptr %9, align 8
  %11 = zext i32 %10 to i64
  %12 = getelementptr inbounds %struct.H5FS_section_class_t, ptr %8, i64 %11
  %13 = getelementptr inbounds i8, ptr %12, i64 16
  %14 = load i32, ptr %13, align 8
  %15 = and i32 %14, 1
  %.not = icmp eq i32 %15, 0
  br i1 %.not, label %16, label %57

16:                                               ; preds = %3
  %17 = getelementptr inbounds i8, ptr %2, i64 8
  %18 = load ptr, ptr %17, align 8
  %19 = load ptr, ptr %18, align 8
  %20 = getelementptr inbounds i8, ptr %4, i64 300
  %21 = load i32, ptr %20, align 4
  %.not35 = icmp eq i32 %21, 0
  br i1 %.not35, label %._crit_edge, label %.lr.ph.preheader

.lr.ph.preheader:                                 ; preds = %16
  %22 = load i64, ptr %0, align 8
  br label %.lr.ph

.lr.ph:                                           ; preds = %.lr.ph.preheader, %.lr.ph
  %.034 = phi ptr [ %24, %.lr.ph ], [ %19, %.lr.ph.preheader ]
  %.02633 = phi i64 [ %25, %.lr.ph ], [ 0, %.lr.ph.preheader ]
  %.02732 = phi i64 [ %26, %.lr.ph ], [ %22, %.lr.ph.preheader ]
  %23 = trunc i64 %.02732 to i8
  %24 = getelementptr inbounds i8, ptr %.034, i64 1
  store i8 %23, ptr %.034, align 1
  %25 = add nuw nsw i64 %.02633, 1
  %26 = lshr i64 %.02732, 8
  %27 = load ptr, ptr %2, align 8
  %28 = getelementptr inbounds i8, ptr %27, i64 300
  %29 = load i32, ptr %28, align 4
  %30 = zext i32 %29 to i64
  %31 = icmp ult i64 %25, %30
  br i1 %31, label %.lr.ph, label %._crit_edge.loopexit

._crit_edge.loopexit:                             ; preds = %.lr.ph
  %.pre = load ptr, ptr %17, align 8
  %.pre37 = load ptr, ptr %.pre, align 8
  br label %._crit_edge

._crit_edge:                                      ; preds = %._crit_edge.loopexit, %16
  %32 = phi ptr [ %19, %16 ], [ %.pre37, %._crit_edge.loopexit ]
  %33 = phi ptr [ %18, %16 ], [ %.pre, %._crit_edge.loopexit ]
  %.lcssa = phi i64 [ 0, %16 ], [ %30, %._crit_edge.loopexit ]
  %34 = getelementptr inbounds i8, ptr %32, i64 %.lcssa
  store ptr %34, ptr %33, align 8
  %35 = load i32, ptr %9, align 8
  %36 = trunc i32 %35 to i8
  %37 = load ptr, ptr %17, align 8
  %38 = load ptr, ptr %37, align 8
  %39 = getelementptr inbounds i8, ptr %38, i64 1
  store ptr %39, ptr %37, align 8
  store i8 %36, ptr %38, align 1
  %40 = getelementptr inbounds i8, ptr %12, i64 56
  %41 = load ptr, ptr %40, align 8
  %.not31 = icmp eq ptr %41, null
  br i1 %.not31, label %57, label %42

42:                                               ; preds = %._crit_edge
  %43 = load ptr, ptr %17, align 8
  %44 = load ptr, ptr %43, align 8
  %45 = tail call i32 %41(ptr noundef nonnull %12, ptr noundef nonnull %0, ptr noundef %44) #7
  %46 = icmp slt i32 %45, 0
  br i1 %46, label %47, label %51

47:                                               ; preds = %42
  %48 = load i64, ptr @H5E_FSPACE_g, align 8
  %49 = load i64, ptr @H5E_CANTSERIALIZE_g, align 8
  %50 = tail call i32 (ptr, ptr, i32, i64, i64, ptr, ...) @H5E_printf_stack(ptr noundef nonnull @.str.2, ptr noundef nonnull @__func__.H5FS__sinfo_serialize_sect_cb, i32 noundef 1398, i64 noundef %48, i64 noundef %49, ptr noundef nonnull @.str.30) #7
  br label %57

51:                                               ; preds = %42
  %52 = getelementptr inbounds i8, ptr %12, i64 8
  %53 = load i64, ptr %52, align 8
  %54 = load ptr, ptr %17, align 8
  %55 = load ptr, ptr %54, align 8
  %56 = getelementptr inbounds i8, ptr %55, i64 %53
  store ptr %56, ptr %54, align 8
  br label %57

57:                                               ; preds = %3, %._crit_edge, %51, %47
  %.028 = phi i32 [ 0, %3 ], [ -1, %47 ], [ 0, %51 ], [ 0, %._crit_edge ]
  ret i32 %.028
}